target datalayout = "e-m:e-p270:32:32-p271:32:32-p272:64:64-i64:64-i128:128-f80:128-n8:16:32:64-S128"
target triple = "x86_64-unknown-linux-gnu"

%class.btMatrix3x3 = type { [3 x %class.btVector3] }
%class.btVector3 = type { [4 x float] }

; Function Attrs: mustprogress nounwind uwtable
define linkonce_odr dso_local noundef ptr @_ZNK9btVector3cvPKfEv(ptr noundef nonnull align 4 dereferenceable(16) %this) #1 comdat align 2 {
entry:
  %this.addr = alloca ptr, align 8
  store ptr %this, ptr %this.addr, align 8
  %this1 = load ptr, ptr %this.addr, align 8
  %m_floats = getelementptr inbounds %class.btVector3, ptr %this1, i32 0, i32 0
  %arrayidx = getelementptr inbounds [4 x float], ptr %m_floats, i64 0, i64 0
  ret ptr %arrayidx
}

; Function Attrs: mustprogress nounwind uwtable
define linkonce_odr dso_local noundef nonnull align 4 dereferenceable(16) ptr @_ZNK11btMatrix3x3ixEi(ptr noundef nonnull align 4 dereferenceable(48) %this, i32 noundef %i) #1 comdat align 2 {
entry:
  %this.addr = alloca ptr, align 8
  %i.addr = alloca i32, align 4
  store ptr %this, ptr %this.addr, align 8
  store i32 %i, ptr %i.addr, align 4
  %this1 = load ptr, ptr %this.addr, align 8
  %m_el = getelementptr inbounds %class.btMatrix3x3, ptr %this1, i32 0, i32 0
  %0 = load i32, ptr %i.addr, align 4
  %idxprom = sext i32 %0 to i64
  %arrayidx = getelementptr inbounds [3 x %class.btVector3], ptr %m_el, i64 0, i64 %idxprom
  ret ptr %arrayidx
}

; Function Attrs: mustprogress nounwind uwtable
define linkonce_odr dso_local noundef float @_Z7btAtan2ff(float noundef %x, float noundef %y) #1 comdat {
entry:
  %x.addr = alloca float, align 4
  %y.addr = alloca float, align 4
  store float %x, ptr %x.addr, align 4
  store float %y, ptr %y.addr, align 4
  %0 = load float, ptr %x.addr, align 4
  %1 = load float, ptr %y.addr, align 4
  %call = call float @atan2f(float noundef %0, float noundef %1) #10
  ret float %call
}

; Function Attrs: mustprogress nounwind uwtable
define linkonce_odr dso_local noundef ptr @_ZN9btVector3cvPfEv(ptr noundef nonnull align 4 dereferenceable(16) %this) #1 comdat align 2 {
entry:
  %this.addr = alloca ptr, align 8
  store ptr %this, ptr %this.addr, align 8
  %this1 = load ptr, ptr %this.addr, align 8
  %m_floats = getelementptr inbounds %class.btVector3, ptr %this1, i32 0, i32 0
  %arrayidx = getelementptr inbounds [4 x float], ptr %m_floats, i64 0, i64 0
  ret ptr %arrayidx
}

; Function Attrs: mustprogress nounwind uwtable
define linkonce_odr dso_local noundef float @_Z6btAsinf(float noundef %x) #1 comdat {
entry:
  %x.addr = alloca float, align 4
  store float %x, ptr %x.addr, align 4
  %0 = load float, ptr %x.addr, align 4
  %cmp = fcmp olt float %0, -1.000000e+00
  br i1 %cmp, label %if.then, label %if.end

if.then:                                          ; preds = %entry
  store float -1.000000e+00, ptr %x.addr, align 4
  br label %if.end

if.end:                                           ; preds = %if.then, %entry
  %1 = load float, ptr %x.addr, align 4
  %cmp1 = fcmp ogt float %1, 1.000000e+00
  br i1 %cmp1, label %if.then2, label %if.end3

if.then2:                                         ; preds = %if.end
  store float 1.000000e+00, ptr %x.addr, align 4
  br label %if.end3

if.end3:                                          ; preds = %if.then2, %if.end
  %2 = load float, ptr %x.addr, align 4
  %call = call float @asinf(float noundef %2) #10
  ret float %call
}

; Function Attrs: mustprogress uwtable
define dso_local noundef float @_ZN30btGeneric6DofSpring2Constraint15btGetMatrixElemERK11btMatrix3x3i(ptr noundef nonnull align 4 dereferenceable(48) %mat, i32 noundef %index) #2 align 2 {
entry:
  %mat.addr = alloca ptr, align 8
  %index.addr = alloca i32, align 4
  %i = alloca i32, align 4
  %j = alloca i32, align 4
  store ptr %mat, ptr %mat.addr, align 8
  store i32 %index, ptr %index.addr, align 4
  %0 = load i32, ptr %index.addr, align 4
  %rem = srem i32 %0, 3
  store i32 %rem, ptr %i, align 4
  %1 = load i32, ptr %index.addr, align 4
  %div = sdiv i32 %1, 3
  store i32 %div, ptr %j, align 4
  %2 = load ptr, ptr %mat.addr, align 8
  %3 = load i32, ptr %i, align 4
  %call = call noundef nonnull align 4 dereferenceable(16) ptr @_ZNK11btMatrix3x3ixEi(ptr noundef nonnull align 4 dereferenceable(48) %2, i32 noundef %3)
  %call1 = call noundef ptr @_ZNK9btVector3cvPKfEv(ptr noundef nonnull align 4 dereferenceable(16) %call)
  %4 = load i32, ptr %j, align 4
  %idxprom = sext i32 %4 to i64
  %arrayidx = getelementptr inbounds float, ptr %call1, i64 %idxprom
  %5 = load float, ptr %arrayidx, align 4
  ret float %5
}

; Function Attrs: mustprogress uwtable
define dso_local noundef zeroext i1 @_ZN30btGeneric6DofSpring2Constraint16matrixToEulerYXZERK11btMatrix3x3R9btVector3(ptr noundef nonnull align 4 dereferenceable(48) %mat, ptr noundef nonnull align 4 dereferenceable(16) %xyz) #2 align 2 {
entry:
  %retval = alloca i1, align 1
  %mat.addr = alloca ptr, align 8
  %xyz.addr = alloca ptr, align 8
  %fi = alloca float, align 4
  store ptr %mat, ptr %mat.addr, align 8
  store ptr %xyz, ptr %xyz.addr, align 8
  %0 = load ptr, ptr %mat.addr, align 8
  %call = call noundef float @_ZN30btGeneric6DofSpring2Constraint15btGetMatrixElemERK11btMatrix3x3i(ptr noundef nonnull align 4 dereferenceable(48) %0, i32 noundef 5)
  store float %call, ptr %fi, align 4
  %1 = load float, ptr %fi, align 4
  %cmp = fcmp olt float %1, 1.000000e+00
  br i1 %cmp, label %if.then, label %if.else27

if.then:                                          ; preds = %entry
  %2 = load float, ptr %fi, align 4
  %cmp1 = fcmp ogt float %2, -1.000000e+00
  br i1 %cmp1, label %if.then2, label %if.else

if.then2:                                         ; preds = %if.then
  %3 = load ptr, ptr %mat.addr, align 8
  %call3 = call noundef float @_ZN30btGeneric6DofSpring2Constraint15btGetMatrixElemERK11btMatrix3x3i(ptr noundef nonnull align 4 dereferenceable(48) %3, i32 noundef 5)
  %fneg = fneg float %call3
  %call4 = call noundef float @_Z6btAsinf(float noundef %fneg)
  %4 = load ptr, ptr %xyz.addr, align 8
  %call5 = call noundef ptr @_ZN9btVector3cvPfEv(ptr noundef nonnull align 4 dereferenceable(16) %4)
  %arrayidx = getelementptr inbounds float, ptr %call5, i64 0
  store float %call4, ptr %arrayidx, align 4
  %5 = load ptr, ptr %mat.addr, align 8
  %call6 = call noundef float @_ZN30btGeneric6DofSpring2Constraint15btGetMatrixElemERK11btMatrix3x3i(ptr noundef nonnull align 4 dereferenceable(48) %5, i32 noundef 2)
  %6 = load ptr, ptr %mat.addr, align 8
  %call7 = call noundef float @_ZN30btGeneric6DofSpring2Constraint15btGetMatrixElemERK11btMatrix3x3i(ptr noundef nonnull align 4 dereferenceable(48) %6, i32 noundef 8)
  %call8 = call noundef float @_Z7btAtan2ff(float noundef %call6, float noundef %call7)
  %7 = load ptr, ptr %xyz.addr, align 8
  %call9 = call noundef ptr @_ZN9btVector3cvPfEv(ptr noundef nonnull align 4 dereferenceable(16) %7)
  %arrayidx10 = getelementptr inbounds float, ptr %call9, i64 1
  store float %call8, ptr %arrayidx10, align 4
  %8 = load ptr, ptr %mat.addr, align 8
  %call11 = call noundef float @_ZN30btGeneric6DofSpring2Constraint15btGetMatrixElemERK11btMatrix3x3i(ptr noundef nonnull align 4 dereferenceable(48) %8, i32 noundef 3)
  %9 = load ptr, ptr %mat.addr, align 8
  %call12 = call noundef float @_ZN30btGeneric6DofSpring2Constraint15btGetMatrixElemERK11btMatrix3x3i(ptr noundef nonnull align 4 dereferenceable(48) %9, i32 noundef 4)
  %call13 = call noundef float @_Z7btAtan2ff(float noundef %call11, float noundef %call12)
  %10 = load ptr, ptr %xyz.addr, align 8
  %call14 = call noundef ptr @_ZN9btVector3cvPfEv(ptr noundef nonnull align 4 dereferenceable(16) %10)
  %arrayidx15 = getelementptr inbounds float, ptr %call14, i64 2
  store float %call13, ptr %arrayidx15, align 4
  store i1 true, ptr %retval, align 1
  br label %return

if.else:                                          ; preds = %if.then
  %11 = load ptr, ptr %xyz.addr, align 8
  %call16 = call noundef ptr @_ZN9btVector3cvPfEv(ptr noundef nonnull align 4 dereferenceable(16) %11)
  %arrayidx17 = getelementptr inbounds float, ptr %call16, i64 0
  store float 0x3FF921FB60000000, ptr %arrayidx17, align 4
  %12 = load ptr, ptr %mat.addr, align 8
  %call18 = call noundef float @_ZN30btGeneric6DofSpring2Constraint15btGetMatrixElemERK11btMatrix3x3i(ptr noundef nonnull align 4 dereferenceable(48) %12, i32 noundef 1)
  %fneg19 = fneg float %call18
  %13 = load ptr, ptr %mat.addr, align 8
  %call20 = call noundef float @_ZN30btGeneric6DofSpring2Constraint15btGetMatrixElemERK11btMatrix3x3i(ptr noundef nonnull align 4 dereferenceable(48) %13, i32 noundef 0)
  %call21 = call noundef float @_Z7btAtan2ff(float noundef %fneg19, float noundef %call20)
  %fneg22 = fneg float %call21
  %14 = load ptr, ptr %xyz.addr, align 8
  %call23 = call noundef ptr @_ZN9btVector3cvPfEv(ptr noundef nonnull align 4 dereferenceable(16) %14)
  %arrayidx24 = getelementptr inbounds float, ptr %call23, i64 1
  store float %fneg22, ptr %arrayidx24, align 4
  %15 = load ptr, ptr %xyz.addr, align 8
  %call25 = call noundef ptr @_ZN9btVector3cvPfEv(ptr noundef nonnull align 4 dereferenceable(16) %15)
  %arrayidx26 = getelementptr inbounds float, ptr %call25, i64 2
  store float 0.000000e+00, ptr %arrayidx26, align 4
  store i1 false, ptr %retval, align 1
  br label %return

if.else27:                                        ; preds = %entry
  %16 = load ptr, ptr %xyz.addr, align 8
  %call28 = call noundef ptr @_ZN9btVector3cvPfEv(ptr noundef nonnull align 4 dereferenceable(16) %16)
  %arrayidx29 = getelementptr inbounds float, ptr %call28, i64 0
  store float 0xBFF921FB60000000, ptr %arrayidx29, align 4
  %17 = load ptr, ptr %mat.addr, align 8
  %call30 = call noundef float @_ZN30btGeneric6DofSpring2Constraint15btGetMatrixElemERK11btMatrix3x3i(ptr noundef nonnull align 4 dereferenceable(48) %17, i32 noundef 1)
  %fneg31 = fneg float %call30
  %18 = load ptr, ptr %mat.addr, align 8
  %call32 = call noundef float @_ZN30btGeneric6DofSpring2Constraint15btGetMatrixElemERK11btMatrix3x3i(ptr noundef nonnull align 4 dereferenceable(48) %18, i32 noundef 0)
  %call33 = call noundef float @_Z7btAtan2ff(float noundef %fneg31, float noundef %call32)
  %19 = load ptr, ptr %xyz.addr, align 8
  %call34 = call noundef ptr @_ZN9btVector3cvPfEv(ptr noundef nonnull align 4 dereferenceable(16) %19)
  %arrayidx35 = getelementptr inbounds float, ptr %call34, i64 1
  store float %call33, ptr %arrayidx35, align 4
  %20 = load ptr, ptr %xyz.addr, align 8
  %call36 = call noundef ptr @_ZN9btVector3cvPfEv(ptr noundef nonnull align 4 dereferenceable(16) %20)
  %arrayidx37 = getelementptr inbounds float, ptr %call36, i64 2
  store float 0.000000e+00, ptr %arrayidx37, align 4
  br label %if.end

if.end:                                           ; preds = %if.else27
  store i1 false, ptr %retval, align 1
  br label %return

return:                                           ; preds = %if.end, %if.else, %if.then2
  %21 = load i1, ptr %retval, align 1
  ret i1 %21
}