; Function Attrs: mustprogress nofree nounwind willreturn memory(write, argmem: readwrite) uwtable
define dso_local noundef zeroext i1 @_ZN30btGeneric6DofSpring2Constraint16matrixToEulerYXZERK11btMatrix3x3R9btVector3(ptr nocapture noundef nonnull readonly align 4 dereferenceable(48) %mat, ptr nocapture noundef nonnull writeonly align 4 dereferenceable(16) %xyz) local_unnamed_addr #6 align 2 {
entry:
  %arrayidx.i.i = getelementptr inbounds i8, ptr %mat, i64 32
  %arrayidx.i = getelementptr inbounds i8, ptr %mat, i64 36
  %0 = load float, ptr %arrayidx.i, align 4
  %cmp = fcmp olt float %0, 1.000000e+00
  br i1 %cmp, label %if.then, label %if.else27

if.then:                                          ; preds = %entry
  %cmp1 = fcmp ogt float %0, -1.000000e+00
  br i1 %cmp1, label %if.then2, label %if.else

if.then2:                                         ; preds = %if.then
  %fneg = fneg float %0
  %cmp.i = fcmp olt float %fneg, -1.000000e+00
  %x.addr.0.i = select i1 %cmp.i, float -1.000000e+00, float %fneg
  %cmp1.i = fcmp ogt float %x.addr.0.i, 1.000000e+00
  %x.addr.1.i = select i1 %cmp1.i, float 1.000000e+00, float %x.addr.0.i
  %call.i = tail call noundef float @asinf(float noundef %x.addr.1.i) #22
  store float %call.i, ptr %xyz, align 4
  %1 = load float, ptr %arrayidx.i.i, align 4
  %arrayidx.i23 = getelementptr inbounds i8, ptr %mat, i64 40
  %2 = load float, ptr %arrayidx.i23, align 4
  %call.i24 = tail call noundef float @atan2f(float noundef %1, float noundef %2) #22
  %arrayidx10 = getelementptr inbounds i8, ptr %xyz, i64 4
  store float %call.i24, ptr %arrayidx10, align 4
  %arrayidx.i25 = getelementptr inbounds i8, ptr %mat, i64 4
  %3 = load float, ptr %arrayidx.i25, align 4
  %arrayidx.i27 = getelementptr inbounds i8, ptr %mat, i64 20
  %4 = load float, ptr %arrayidx.i27, align 4
  %call.i28 = tail call noundef float @atan2f(float noundef %3, float noundef %4) #22
  br label %return

if.else:                                          ; preds = %if.then
  store float 0x3FF921FB60000000, ptr %xyz, align 4
  %arrayidx.i.i29 = getelementptr inbounds i8, ptr %mat, i64 16
  %5 = load float, ptr %arrayidx.i.i29, align 4
  %fneg19 = fneg float %5
  %6 = load float, ptr %mat, align 4
  %call.i30 = tail call noundef float @atan2f(float noundef %fneg19, float noundef %6) #22
  %fneg22 = fneg float %call.i30
  %arrayidx24 = getelementptr inbounds i8, ptr %xyz, i64 4
  store float %fneg22, ptr %arrayidx24, align 4
  br label %return

if.else27:                                        ; preds = %entry
  store float 0xBFF921FB60000000, ptr %xyz, align 4
  %arrayidx.i.i31 = getelementptr inbounds i8, ptr %mat, i64 16
  %7 = load float, ptr %arrayidx.i.i31, align 4
  %fneg31 = fneg float %7
  %8 = load float, ptr %mat, align 4
  %call.i32 = tail call noundef float @atan2f(float noundef %fneg31, float noundef %8) #22
  %arrayidx35 = getelementptr inbounds i8, ptr %xyz, i64 4
  store float %call.i32, ptr %arrayidx35, align 4
  br label %return

return:                                           ; preds = %if.else27, %if.else, %if.then2
  %.sink = phi float [ 0.000000e+00, %if.else27 ], [ 0.000000e+00, %if.else ], [ %call.i28, %if.then2 ]
  %retval.0 = phi i1 [ false, %if.else27 ], [ false, %if.else ], [ true, %if.then2 ]
  %arrayidx37 = getelementptr inbounds i8, ptr %xyz, i64 8
  store float %.sink, ptr %arrayidx37, align 4
  ret i1 %retval.0
}